target datalayout = "e-m:e-p270:32:32-p271:32:32-p272:64:64-i64:64-i128:128-f80:128-n8:16:32:64-S128"
target triple = "x86_64-pc-linux-gnu"

%struct.expert_field = type { i32, i32 }
%struct._c_pkt_data = type { ptr, ptr, ptr, ptr, ptr, ptr, %struct._c_header }
%struct._c_header = type { i64, i64, i32, i16, i16, %struct._c_node_name }
%struct._c_node_name = type { ptr, ptr, i64, i32 }
%struct._c_str = type { ptr, i32 }

@hf_string_data = internal global i32 0, align 4
@hf_string_size = internal global i32 0, align 4
@hf_path_ver = internal global i32 0, align 4
@hf_path_inode = internal global i32 0, align 4
@hf_path_rel = internal global i32 0, align 4
@ett_str = internal global i32 0, align 4
@ett_filepath = internal global i32 0, align 4
@ei_ver_tooold = internal global %struct.expert_field zeroinitializer, align 4
@ei_ver_toonew = internal global %struct.expert_field zeroinitializer, align 4
@.str.1586 = private unnamed_addr constant [30 x i8] c"epan/dissectors/packet-ceph.c\00", align 1
@.str.1621 = private unnamed_addr constant [48 x i8] c"%s:%u: failed assertion min <= max (%ld <= %ld)\00", align 1
@.str.1622 = private unnamed_addr constant [61 x i8] c"Version %d is lower then the minimum supported version (%d).\00", align 1
@.str.1623 = private unnamed_addr constant [62 x i8] c"Version %d is higher then the maximum supported version (%d).\00", align 1
@.str.1647 = private unnamed_addr constant [18 x i8] c", Inode: 0x%016lu\00", align 1
@.str.1648 = private unnamed_addr constant [12 x i8] c", Rel: \22%s\22\00", align 1

; Function Attrs: null_pointer_is_valid sspstrong uwtable
define internal i32 @c_dissect_str(ptr noundef %0, i32 noundef %1, ptr noundef %2, ptr noundef %3, i32 noundef %4) #0 {
  %6 = alloca ptr, align 8
  %7 = alloca i32, align 4
  %8 = alloca ptr, align 8
  %9 = alloca ptr, align 8
  %10 = alloca i32, align 4
  %11 = alloca ptr, align 8
  %12 = alloca ptr, align 8
  %13 = alloca %struct._c_str, align 8
  store ptr %0, ptr %6, align 8
  store i32 %1, ptr %7, align 4
  store ptr %2, ptr %8, align 8
  store ptr %3, ptr %9, align 8
  store i32 %4, ptr %10, align 4
  call void @llvm.lifetime.start.p0(i64 8, ptr %11) #14
  call void @llvm.lifetime.start.p0(i64 8, ptr %12) #14
  call void @llvm.lifetime.start.p0(i64 16, ptr %13) #14
  %14 = load ptr, ptr %9, align 8
  %15 = load i32, ptr %10, align 4
  %16 = call i32 @tvb_get_letohl(ptr noundef %14, i32 noundef %15)
  %17 = getelementptr inbounds nuw %struct._c_str, ptr %13, i32 0, i32 1
  store i32 %16, ptr %17, align 8
  %18 = call ptr @wmem_packet_scope()
  %19 = load ptr, ptr %9, align 8
  %20 = load i32, ptr %10, align 4
  %21 = add i32 %20, 4
  %22 = getelementptr inbounds nuw %struct._c_str, ptr %13, i32 0, i32 1
  %23 = load i32, ptr %22, align 8
  %24 = call ptr @tvb_get_string_enc(ptr noundef %18, ptr noundef %19, i32 noundef %21, i32 noundef %23, i32 noundef 0)
  %25 = getelementptr inbounds nuw %struct._c_str, ptr %13, i32 0, i32 0
  store ptr %24, ptr %25, align 8
  %26 = load ptr, ptr %6, align 8
  %27 = load i32, ptr %7, align 4
  %28 = load ptr, ptr %9, align 8
  %29 = load i32, ptr %10, align 4
  %30 = getelementptr inbounds nuw %struct._c_str, ptr %13, i32 0, i32 1
  %31 = load i32, ptr %30, align 8
  %32 = add i32 4, %31
  %33 = getelementptr inbounds nuw %struct._c_str, ptr %13, i32 0, i32 0
  %34 = load ptr, ptr %33, align 8
  %35 = call ptr @proto_tree_add_string(ptr noundef %26, i32 noundef %27, ptr noundef %28, i32 noundef %29, i32 noundef %32, ptr noundef %34)
  store ptr %35, ptr %11, align 8
  %36 = load ptr, ptr %11, align 8
  %37 = load i32, ptr @ett_str, align 4
  %38 = call ptr @proto_item_add_subtree(ptr noundef %36, i32 noundef %37)
  store ptr %38, ptr %12, align 8
  %39 = load ptr, ptr %12, align 8
  %40 = load i32, ptr @hf_string_size, align 4
  %41 = load ptr, ptr %9, align 8
  %42 = load i32, ptr %10, align 4
  %43 = call ptr @proto_tree_add_item(ptr noundef %39, i32 noundef %40, ptr noundef %41, i32 noundef %42, i32 noundef 4, i32 noundef -2147483648)
  %44 = load i32, ptr %10, align 4
  %45 = add i32 %44, 4
  store i32 %45, ptr %10, align 4
  %46 = load ptr, ptr %12, align 8
  %47 = load i32, ptr @hf_string_data, align 4
  %48 = load ptr, ptr %9, align 8
  %49 = load i32, ptr %10, align 4
  %50 = getelementptr inbounds nuw %struct._c_str, ptr %13, i32 0, i32 1
  %51 = load i32, ptr %50, align 8
  %52 = call ptr @proto_tree_add_item(ptr noundef %46, i32 noundef %47, ptr noundef %48, i32 noundef %49, i32 noundef %51, i32 noundef 2)
  %53 = getelementptr inbounds nuw %struct._c_str, ptr %13, i32 0, i32 1
  %54 = load i32, ptr %53, align 8
  %55 = load i32, ptr %10, align 4
  %56 = add i32 %55, %54
  store i32 %56, ptr %10, align 4
  %57 = load ptr, ptr %8, align 8
  %58 = icmp ne ptr %57, null
  br i1 %58, label %59, label %61

59:                                               ; preds = %5
  %60 = load ptr, ptr %8, align 8
  call void @llvm.memcpy.p0.p0.i64(ptr align 8 %60, ptr align 8 %13, i64 16, i1 false)
  br label %61

61:                                               ; preds = %59, %5
  %62 = load i32, ptr %10, align 4
  call void @llvm.lifetime.end.p0(i64 16, ptr %13) #14
  call void @llvm.lifetime.end.p0(i64 8, ptr %12) #14
  call void @llvm.lifetime.end.p0(i64 8, ptr %11) #14
  ret i32 %62
}

; Function Attrs: null_pointer_is_valid sspstrong uwtable
define internal i32 @c_warn_ver(ptr noundef %0, i32 noundef %1, i32 noundef %2, i32 noundef %3, ptr noundef %4) #0 {
  %6 = alloca i32, align 4
  %7 = alloca ptr, align 8
  %8 = alloca i32, align 4
  %9 = alloca i32, align 4
  %10 = alloca i32, align 4
  %11 = alloca ptr, align 8
  store ptr %0, ptr %7, align 8
  store i32 %1, ptr %8, align 4
  store i32 %2, ptr %9, align 4
  store i32 %3, ptr %10, align 4
  store ptr %4, ptr %11, align 8
  %12 = load i32, ptr %9, align 4
  %13 = load i32, ptr %10, align 4
  %14 = icmp sle i32 %12, %13
  br i1 %14, label %15, label %16

15:                                               ; preds = %5
  br label %22

16:                                               ; preds = %5
  %17 = load i32, ptr %9, align 4
  %18 = sext i32 %17 to i64
  %19 = load i32, ptr %10, align 4
  %20 = sext i32 %19 to i64
  call void (ptr, ...) @proto_report_dissector_bug(ptr noundef @.str.1621, ptr noundef @.str.1586, i32 noundef 1743, i64 noundef %18, i64 noundef %20) #15
  unreachable

21:                                               ; No predecessors!
  br label %22

22:                                               ; preds = %21, %15
  %23 = load i32, ptr %8, align 4
  %24 = load i32, ptr %9, align 4
  %25 = icmp slt i32 %23, %24
  br i1 %25, label %26, label %34

26:                                               ; preds = %22
  %27 = load ptr, ptr %11, align 8
  %28 = getelementptr inbounds nuw %struct._c_pkt_data, ptr %27, i32 0, i32 5
  %29 = load ptr, ptr %28, align 8
  %30 = load ptr, ptr %7, align 8
  %31 = load i32, ptr %8, align 4
  %32 = load i32, ptr %9, align 4
  %33 = call ptr (ptr, ptr, ptr, ptr, ...) @expert_add_info_format(ptr noundef %29, ptr noundef %30, ptr noundef @ei_ver_tooold, ptr noundef @.str.1622, i32 noundef %31, i32 noundef %32)
  store i32 -1, ptr %6, align 4
  br label %47

34:                                               ; preds = %22
  %35 = load i32, ptr %8, align 4
  %36 = load i32, ptr %10, align 4
  %37 = icmp sgt i32 %35, %36
  br i1 %37, label %38, label %46

38:                                               ; preds = %34
  %39 = load ptr, ptr %11, align 8
  %40 = getelementptr inbounds nuw %struct._c_pkt_data, ptr %39, i32 0, i32 5
  %41 = load ptr, ptr %40, align 8
  %42 = load ptr, ptr %7, align 8
  %43 = load i32, ptr %8, align 4
  %44 = load i32, ptr %10, align 4
  %45 = call ptr (ptr, ptr, ptr, ptr, ...) @expert_add_info_format(ptr noundef %41, ptr noundef %42, ptr noundef @ei_ver_toonew, ptr noundef @.str.1623, i32 noundef %43, i32 noundef %44)
  store i32 1, ptr %6, align 4
  br label %47

46:                                               ; preds = %34
  store i32 0, ptr %6, align 4
  br label %47

47:                                               ; preds = %46, %38, %26
  %48 = load i32, ptr %6, align 4
  ret i32 %48
}

; Function Attrs: null_pointer_is_valid sspstrong uwtable
define internal i32 @c_dissect_path(ptr noundef %0, i32 noundef %1, ptr noundef %2, i32 noundef %3, ptr noundef %4) #0 {
  %6 = alloca ptr, align 8
  %7 = alloca i32, align 4
  %8 = alloca ptr, align 8
  %9 = alloca i32, align 4
  %10 = alloca ptr, align 8
  %11 = alloca ptr, align 8
  %12 = alloca ptr, align 8
  %13 = alloca ptr, align 8
  %14 = alloca i64, align 8
  %15 = alloca %struct._c_str, align 8
  %16 = alloca i32, align 4
  store ptr %0, ptr %6, align 8
  store i32 %1, ptr %7, align 4
  store ptr %2, ptr %8, align 8
  store i32 %3, ptr %9, align 4
  store ptr %4, ptr %10, align 8
  call void @llvm.lifetime.start.p0(i64 8, ptr %11) #14
  call void @llvm.lifetime.start.p0(i64 8, ptr %12) #14
  call void @llvm.lifetime.start.p0(i64 8, ptr %13) #14
  call void @llvm.lifetime.start.p0(i64 8, ptr %14) #14
  call void @llvm.lifetime.start.p0(i64 16, ptr %15) #14
  call void @llvm.lifetime.start.p0(i64 4, ptr %16) #14
  %17 = load ptr, ptr %6, align 8
  %18 = load i32, ptr %7, align 4
  %19 = load ptr, ptr %8, align 8
  %20 = load i32, ptr %9, align 4
  %21 = call ptr @proto_tree_add_item(ptr noundef %17, i32 noundef %18, ptr noundef %19, i32 noundef %20, i32 noundef -1, i32 noundef 0)
  store ptr %21, ptr %11, align 8
  %22 = load ptr, ptr %11, align 8
  %23 = load i32, ptr @ett_filepath, align 4
  %24 = call ptr @proto_item_add_subtree(ptr noundef %22, i32 noundef %23)
  store ptr %24, ptr %13, align 8
  %25 = load ptr, ptr %8, align 8
  %26 = load i32, ptr %9, align 4
  %27 = call zeroext i8 @tvb_get_uint8(ptr noundef %25, i32 noundef %26)
  %28 = zext i8 %27 to i32
  store i32 %28, ptr %16, align 4
  %29 = load ptr, ptr %13, align 8
  %30 = load i32, ptr @hf_path_ver, align 4
  %31 = load ptr, ptr %8, align 8
  %32 = load i32, ptr %9, align 4
  %33 = call ptr @proto_tree_add_item(ptr noundef %29, i32 noundef %30, ptr noundef %31, i32 noundef %32, i32 noundef 1, i32 noundef -2147483648)
  store ptr %33, ptr %12, align 8
  %34 = load ptr, ptr %12, align 8
  %35 = load i32, ptr %16, align 4
  %36 = load ptr, ptr %10, align 8
  %37 = call i32 @c_warn_ver(ptr noundef %34, i32 noundef %35, i32 noundef 1, i32 noundef 1, ptr noundef %36)
  %38 = load i32, ptr %9, align 4
  %39 = add i32 %38, 1
  store i32 %39, ptr %9, align 4
  %40 = load ptr, ptr %8, align 8
  %41 = load i32, ptr %9, align 4
  %42 = call i64 @tvb_get_letoh64(ptr noundef %40, i32 noundef %41)
  store i64 %42, ptr %14, align 8
  %43 = load ptr, ptr %13, align 8
  %44 = load i32, ptr @hf_path_inode, align 4
  %45 = load ptr, ptr %8, align 8
  %46 = load i32, ptr %9, align 4
  %47 = call ptr @proto_tree_add_item(ptr noundef %43, i32 noundef %44, ptr noundef %45, i32 noundef %46, i32 noundef 8, i32 noundef -2147483648)
  %48 = load i32, ptr %9, align 4
  %49 = add i32 %48, 8
  store i32 %49, ptr %9, align 4
  %50 = load ptr, ptr %13, align 8
  %51 = load i32, ptr @hf_path_rel, align 4
  %52 = load ptr, ptr %8, align 8
  %53 = load i32, ptr %9, align 4
  %54 = call i32 @c_dissect_str(ptr noundef %50, i32 noundef %51, ptr noundef %15, ptr noundef %52, i32 noundef %53)
  store i32 %54, ptr %9, align 4
  %55 = load i64, ptr %14, align 8
  %56 = icmp ne i64 %55, 0
  br i1 %56, label %57, label %60

57:                                               ; preds = %5
  %58 = load ptr, ptr %11, align 8
  %59 = load i64, ptr %14, align 8
  call void (ptr, ptr, ...) @proto_item_append_text(ptr noundef %58, ptr noundef @.str.1647, i64 noundef %59)
  br label %60

60:                                               ; preds = %57, %5
  %61 = getelementptr inbounds nuw %struct._c_str, ptr %15, i32 0, i32 1
  %62 = load i32, ptr %61, align 8
  %63 = icmp ne i32 %62, 0
  br i1 %63, label %64, label %68

64:                                               ; preds = %60
  %65 = load ptr, ptr %11, align 8
  %66 = getelementptr inbounds nuw %struct._c_str, ptr %15, i32 0, i32 0
  %67 = load ptr, ptr %66, align 8
  call void (ptr, ptr, ...) @proto_item_append_text(ptr noundef %65, ptr noundef @.str.1648, ptr noundef %67)
  br label %68

68:                                               ; preds = %64, %60
  %69 = load ptr, ptr %11, align 8
  %70 = load ptr, ptr %8, align 8
  %71 = load i32, ptr %9, align 4
  call void @proto_item_set_end(ptr noundef %69, ptr noundef %70, i32 noundef %71)
  %72 = load i32, ptr %9, align 4
  call void @llvm.lifetime.end.p0(i64 4, ptr %16) #14
  call void @llvm.lifetime.end.p0(i64 16, ptr %15) #14
  call void @llvm.lifetime.end.p0(i64 8, ptr %14) #14
  call void @llvm.lifetime.end.p0(i64 8, ptr %13) #14
  call void @llvm.lifetime.end.p0(i64 8, ptr %12) #14
  call void @llvm.lifetime.end.p0(i64 8, ptr %11) #14
  ret i32 %72
}