; Function Attrs: null_pointer_is_valid sspstrong uwtable
define internal fastcc noundef i32 @c_dissect_path(ptr noundef %0, i32 noundef %1, ptr noundef %2, i32 noundef %3, ptr noundef readonly captures(none) %4) unnamed_addr #0 {
  %6 = tail call ptr @proto_tree_add_item(ptr noundef %0, i32 noundef %1, ptr noundef %2, i32 noundef %3, i32 noundef -1, i32 noundef 0)
  %7 = load i32, ptr @ett_filepath, align 4
  %8 = tail call ptr @proto_item_add_subtree(ptr noundef %6, i32 noundef %7)
  %9 = tail call zeroext i8 @tvb_get_uint8(ptr noundef %2, i32 noundef %3)
  %10 = zext i8 %9 to i32
  %11 = load i32, ptr @hf_path_ver, align 4
  %12 = tail call ptr @proto_tree_add_item(ptr noundef %8, i32 noundef %11, ptr noundef %2, i32 noundef %3, i32 noundef 1, i32 noundef -2147483648)
  switch i8 %9, label %17 [
    i8 0, label %13
    i8 1, label %c_warn_ver.exit
  ]

13:                                               ; preds = %5
  %14 = getelementptr inbounds nuw i8, ptr %4, i64 40
  %15 = load ptr, ptr %14, align 8
  %16 = tail call ptr (ptr, ptr, ptr, ptr, ...) @expert_add_info_format(ptr noundef %15, ptr noundef %12, ptr noundef nonnull @ei_ver_tooold, ptr noundef nonnull @.str.1622, i32 noundef range(i32 0, 256) %10, i32 noundef 1)
  br label %c_warn_ver.exit

17:                                               ; preds = %5
  %18 = getelementptr inbounds nuw i8, ptr %4, i64 40
  %19 = load ptr, ptr %18, align 8
  %20 = tail call ptr (ptr, ptr, ptr, ptr, ...) @expert_add_info_format(ptr noundef %19, ptr noundef %12, ptr noundef nonnull @ei_ver_toonew, ptr noundef nonnull @.str.1623, i32 noundef range(i32 0, 256) %10, i32 noundef 1)
  br label %c_warn_ver.exit

c_warn_ver.exit:                                  ; preds = %5, %13, %17
  %21 = add i32 %3, 1
  %22 = tail call i64 @tvb_get_letoh64(ptr noundef %2, i32 noundef %21)
  %23 = load i32, ptr @hf_path_inode, align 4
  %24 = tail call ptr @proto_tree_add_item(ptr noundef %8, i32 noundef %23, ptr noundef %2, i32 noundef %21, i32 noundef 8, i32 noundef -2147483648)
  %25 = add i32 %3, 9
  %26 = load i32, ptr @hf_path_rel, align 4
  %27 = tail call i32 @tvb_get_letohl(ptr noundef %2, i32 noundef %25)
  %28 = tail call ptr @wmem_packet_scope()
  %29 = add i32 %3, 13
  %30 = tail call ptr @tvb_get_string_enc(ptr noundef %28, ptr noundef %2, i32 noundef %29, i32 noundef %27, i32 noundef 0)
  %31 = add i32 %27, 4
  %32 = tail call ptr @proto_tree_add_string(ptr noundef %8, i32 noundef %26, ptr noundef %2, i32 noundef %25, i32 noundef %31, ptr noundef %30)
  %33 = load i32, ptr @ett_str, align 4
  %34 = tail call ptr @proto_item_add_subtree(ptr noundef %32, i32 noundef %33)
  %35 = load i32, ptr @hf_string_size, align 4
  %36 = tail call ptr @proto_tree_add_item(ptr noundef %34, i32 noundef %35, ptr noundef %2, i32 noundef %25, i32 noundef 4, i32 noundef -2147483648)
  %37 = load i32, ptr @hf_string_data, align 4
  %38 = tail call ptr @proto_tree_add_item(ptr noundef %34, i32 noundef %37, ptr noundef %2, i32 noundef %29, i32 noundef %27, i32 noundef 2)
  %.not = icmp eq i64 %22, 0
  br i1 %.not, label %40, label %39

39:                                               ; preds = %c_warn_ver.exit
  tail call void (ptr, ptr, ...) @proto_item_append_text(ptr noundef %6, ptr noundef nonnull @.str.1647, i64 noundef %22)
  br label %40

40:                                               ; preds = %39, %c_warn_ver.exit
  %.not30 = icmp eq i32 %27, 0
  br i1 %.not30, label %42, label %41

41:                                               ; preds = %40
  tail call void (ptr, ptr, ...) @proto_item_append_text(ptr noundef %6, ptr noundef nonnull @.str.1648, ptr noundef %30)
  br label %42

42:                                               ; preds = %41, %40
  %43 = add i32 %27, %29
  tail call void @proto_item_set_end(ptr noundef %6, ptr noundef %2, i32 noundef %43)
  ret i32 %43
}